; ModuleID = '10/2197.c'
source_filename = "10/2197.c"
target datalayout = "e-m:e-p270:32:32-p271:32:32-p272:64:64-i64:64-f80:128-n8:16:32:64-S128"
target triple = "x86_64-pc-linux-gnu"

@max.y = internal global [25 x i32] zeroinitializer, align 16
@main.x = internal global [25 x i32] zeroinitializer, align 16
@main.sum = internal global [25 x i32] zeroinitializer, align 16
@.str = private unnamed_addr constant [3 x i8] c"%d\00", align 1

; Function Attrs: noinline nounwind uwtable
define dso_local i32 @max(i32* %0, i32* %1, i32 %2, i32 %3, i32 %4) #0 {
  %6 = alloca i32, align 4
  %7 = alloca i32*, align 8
  %8 = alloca i32*, align 8
  %9 = alloca i32, align 4
  %10 = alloca i32, align 4
  %11 = alloca i32, align 4
  %12 = alloca i32, align 4
  %13 = alloca i32, align 4
  store i32* %0, i32** %7, align 8
  store i32* %1, i32** %8, align 8
  store i32 %2, i32* %9, align 4
  store i32 %3, i32* %10, align 4
  store i32 %4, i32* %11, align 4
  store i32 1, i32* %13, align 4
  %14 = load i32, i32* %9, align 4
  %15 = add nsw i32 %14, 1
  store i32 %15, i32* %12, align 4
  br label %16

16:                                               ; preds = %49, %5
  %17 = load i32, i32* %12, align 4
  %18 = load i32, i32* %11, align 4
  %19 = sub nsw i32 %18, 1
  %20 = icmp sle i32 %17, %19
  br i1 %20, label %21, label %52

21:                                               ; preds = %16
  %22 = load i32, i32* %12, align 4
  %23 = load i32, i32* %10, align 4
  %24 = icmp ne i32 %22, %23
  br i1 %24, label %25, label %48

25:                                               ; preds = %21
  %26 = load i32*, i32** %8, align 8
  %27 = load i32, i32* %9, align 4
  %28 = sext i32 %27 to i64
  %29 = getelementptr inbounds i32, i32* %26, i64 %28
  %30 = load i32, i32* %29, align 4
  %31 = load i32*, i32** %8, align 8
  %32 = load i32, i32* %12, align 4
  %33 = sext i32 %32 to i64
  %34 = getelementptr inbounds i32, i32* %31, i64 %33
  %35 = load i32, i32* %34, align 4
  %36 = icmp sge i32 %30, %35
  br i1 %36, label %37, label %48

37:                                               ; preds = %25
  %38 = load i32*, i32** %7, align 8
  %39 = load i32, i32* %12, align 4
  %40 = sext i32 %39 to i64
  %41 = getelementptr inbounds i32, i32* %38, i64 %40
  %42 = load i32, i32* %41, align 4
  %43 = load i32, i32* %13, align 4
  %44 = sext i32 %43 to i64
  %45 = getelementptr inbounds [25 x i32], [25 x i32]* @max.y, i64 0, i64 %44
  store i32 %42, i32* %45, align 4
  %46 = load i32, i32* %13, align 4
  %47 = add nsw i32 %46, 1
  store i32 %47, i32* %13, align 4
  br label %48

48:                                               ; preds = %37, %25, %21
  br label %49

49:                                               ; preds = %48
  %50 = load i32, i32* %12, align 4
  %51 = add nsw i32 %50, 1
  store i32 %51, i32* %12, align 4
  br label %16

52:                                               ; preds = %16
  store i32 1, i32* %9, align 4
  br label %53

53:                                               ; preds = %70, %52
  %54 = load i32, i32* %9, align 4
  %55 = load i32, i32* %13, align 4
  %56 = icmp slt i32 %54, %55
  br i1 %56, label %57, label %73

57:                                               ; preds = %53
  %58 = load i32*, i32** %7, align 8
  %59 = load i32, i32* %10, align 4
  %60 = sext i32 %59 to i64
  %61 = getelementptr inbounds i32, i32* %58, i64 %60
  %62 = load i32, i32* %61, align 4
  %63 = load i32, i32* %9, align 4
  %64 = sext i32 %63 to i64
  %65 = getelementptr inbounds [25 x i32], [25 x i32]* @max.y, i64 0, i64 %64
  %66 = load i32, i32* %65, align 4
  %67 = icmp slt i32 %62, %66
  br i1 %67, label %68, label %69

68:                                               ; preds = %57
  br label %73

69:                                               ; preds = %57
  br label %70

70:                                               ; preds = %69
  %71 = load i32, i32* %9, align 4
  %72 = add nsw i32 %71, 1
  store i32 %72, i32* %9, align 4
  br label %53

73:                                               ; preds = %68, %53
  %74 = load i32, i32* %9, align 4
  %75 = load i32, i32* %13, align 4
  %76 = icmp eq i32 %74, %75
  br i1 %76, label %77, label %78

77:                                               ; preds = %73
  store i32 1, i32* %6, align 4
  br label %79

78:                                               ; preds = %73
  store i32 0, i32* %6, align 4
  br label %79

79:                                               ; preds = %78, %77
  %80 = load i32, i32* %6, align 4
  ret i32 %80
}

; Function Attrs: noinline nounwind uwtable
define dso_local i32 @main() #0 {
  %1 = alloca i32, align 4
  %2 = alloca i32, align 4
  %3 = alloca i32, align 4
  %4 = alloca i32, align 4
  %5 = alloca i32, align 4
  store i32 0, i32* %1, align 4
  %6 = call i32 (i8*, ...) @__isoc99_scanf(i8* getelementptr inbounds ([3 x i8], [3 x i8]* @.str, i64 0, i64 0), i32* %2)
  store i32 0, i32* %3, align 4
  br label %7

7:                                                ; preds = %16, %0
  %8 = load i32, i32* %3, align 4
  %9 = load i32, i32* %2, align 4
  %10 = icmp slt i32 %8, %9
  br i1 %10, label %11, label %19

11:                                               ; preds = %7
  %12 = load i32, i32* %3, align 4
  %13 = sext i32 %12 to i64
  %14 = getelementptr inbounds [25 x i32], [25 x i32]* @main.x, i64 0, i64 %13
  %15 = call i32 (i8*, ...) @__isoc99_scanf(i8* getelementptr inbounds ([3 x i8], [3 x i8]* @.str, i64 0, i64 0), i32* %14)
  br label %16

16:                                               ; preds = %11
  %17 = load i32, i32* %3, align 4
  %18 = add nsw i32 %17, 1
  store i32 %18, i32* %3, align 4
  br label %7

19:                                               ; preds = %7
  %20 = load i32, i32* %2, align 4
  %21 = sub nsw i32 %20, 1
  %22 = sext i32 %21 to i64
  %23 = getelementptr inbounds [25 x i32], [25 x i32]* @main.sum, i64 0, i64 %22
  store i32 1, i32* %23, align 4
  %24 = load i32, i32* %2, align 4
  %25 = sub nsw i32 %24, 2
  store i32 %25, i32* %3, align 4
  br label %26

26:                                               ; preds = %71, %19
  %27 = load i32, i32* %3, align 4
  %28 = icmp sge i32 %27, 0
  br i1 %28, label %29, label %74

29:                                               ; preds = %26
  %30 = load i32, i32* %3, align 4
  %31 = add nsw i32 %30, 1
  store i32 %31, i32* %4, align 4
  br label %32

32:                                               ; preds = %62, %29
  %33 = load i32, i32* %4, align 4
  %34 = load i32, i32* %2, align 4
  %35 = sub nsw i32 %34, 1
  %36 = icmp sle i32 %33, %35
  br i1 %36, label %37, label %65

37:                                               ; preds = %32
  %38 = load i32, i32* %3, align 4
  %39 = sext i32 %38 to i64
  %40 = getelementptr inbounds [25 x i32], [25 x i32]* @main.x, i64 0, i64 %39
  %41 = load i32, i32* %40, align 4
  %42 = load i32, i32* %4, align 4
  %43 = sext i32 %42 to i64
  %44 = getelementptr inbounds [25 x i32], [25 x i32]* @main.x, i64 0, i64 %43
  %45 = load i32, i32* %44, align 4
  %46 = icmp sge i32 %41, %45
  br i1 %46, label %47, label %61

47:                                               ; preds = %37
  %48 = load i32, i32* %3, align 4
  %49 = load i32, i32* %4, align 4
  %50 = load i32, i32* %2, align 4
  %51 = call i32 @max(i32* getelementptr inbounds ([25 x i32], [25 x i32]* @main.sum, i64 0, i64 0), i32* getelementptr inbounds ([25 x i32], [25 x i32]* @main.x, i64 0, i64 0), i32 %48, i32 %49, i32 %50)
  %52 = icmp ne i32 %51, 0
  br i1 %52, label %53, label %61

53:                                               ; preds = %47
  %54 = load i32, i32* %4, align 4
  %55 = sext i32 %54 to i64
  %56 = getelementptr inbounds [25 x i32], [25 x i32]* @main.sum, i64 0, i64 %55
  %57 = load i32, i32* %56, align 4
  %58 = load i32, i32* %3, align 4
  %59 = sext i32 %58 to i64
  %60 = getelementptr inbounds [25 x i32], [25 x i32]* @main.sum, i64 0, i64 %59
  store i32 %57, i32* %60, align 4
  br label %61

61:                                               ; preds = %53, %47, %37
  br label %62

62:                                               ; preds = %61
  %63 = load i32, i32* %4, align 4
  %64 = add nsw i32 %63, 1
  store i32 %64, i32* %4, align 4
  br label %32

65:                                               ; preds = %32
  %66 = load i32, i32* %3, align 4
  %67 = sext i32 %66 to i64
  %68 = getelementptr inbounds [25 x i32], [25 x i32]* @main.sum, i64 0, i64 %67
  %69 = load i32, i32* %68, align 4
  %70 = add nsw i32 %69, 1
  store i32 %70, i32* %68, align 4
  br label %71

71:                                               ; preds = %65
  %72 = load i32, i32* %3, align 4
  %73 = add nsw i32 %72, -1
  store i32 %73, i32* %3, align 4
  br label %26

74:                                               ; preds = %26
  %75 = load i32, i32* getelementptr inbounds ([25 x i32], [25 x i32]* @main.sum, i64 0, i64 0), align 16
  store i32 %75, i32* %5, align 4
  store i32 1, i32* %3, align 4
  br label %76

76:                                               ; preds = %93, %74
  %77 = load i32, i32* %3, align 4
  %78 = load i32, i32* %2, align 4
  %79 = icmp slt i32 %77, %78
  br i1 %79, label %80, label %96

80:                                               ; preds = %76
  %81 = load i32, i32* %3, align 4
  %82 = sext i32 %81 to i64
  %83 = getelementptr inbounds [25 x i32], [25 x i32]* @main.sum, i64 0, i64 %82
  %84 = load i32, i32* %83, align 4
  %85 = load i32, i32* %5, align 4
  %86 = icmp sgt i32 %84, %85
  br i1 %86, label %87, label %92

87:                                               ; preds = %80
  %88 = load i32, i32* %3, align 4
  %89 = sext i32 %88 to i64
  %90 = getelementptr inbounds [25 x i32], [25 x i32]* @main.sum, i64 0, i64 %89
  %91 = load i32, i32* %90, align 4
  store i32 %91, i32* %5, align 4
  br label %92

92:                                               ; preds = %87, %80
  br label %93

93:                                               ; preds = %92
  %94 = load i32, i32* %3, align 4
  %95 = add nsw i32 %94, 1
  store i32 %95, i32* %3, align 4
  br label %76

96:                                               ; preds = %76
  %97 = load i32, i32* %5, align 4
  %98 = call i32 (i8*, ...) @printf(i8* getelementptr inbounds ([3 x i8], [3 x i8]* @.str, i64 0, i64 0), i32 %97)
  %99 = load i32, i32* %1, align 4
  ret i32 %99
}

declare dso_local i32 @__isoc99_scanf(i8*, ...) #1

declare dso_local i32 @printf(i8*, ...) #1


!llvm.module.flags = !{!0}
!llvm.ident = !{!1}

!0 = !{i32 1, !"wchar_size", i32 4}
!1 = !{!"clang version 10.0.0-4ubuntu1 "}
